; Function Attrs: mustprogress nounwind uwtable
define dso_local noundef ptr @_ZN4llvm10DISubrange7getImplERNS_11LLVMContextEllNS_8Metadata11StorageTypeEb(ptr noundef nonnull align 8 dereferenceable(8) %0, i64 noundef %1, i64 noundef %2, i32 noundef %3, i1 noundef zeroext %4) local_unnamed_addr #0 align 2 {
  %6 = tail call noundef ptr @_ZN4llvm4Type10getInt64TyERNS_11LLVMContextE(ptr noundef nonnull align 8 dereferenceable(8) %0) #24
  %7 = tail call noundef ptr @_ZN4llvm11ConstantInt3getEPNS_11IntegerTypeEmb(ptr noundef %6, i64 noundef %1, i1 noundef zeroext true) #24
  %8 = tail call noundef ptr @_ZN4llvm15ValueAsMetadata3getEPNS_5ValueE(ptr noundef %7) #24
  %9 = tail call noundef ptr @_ZN4llvm4Type10getInt64TyERNS_11LLVMContextE(ptr noundef nonnull align 8 dereferenceable(8) %0) #24
  %10 = tail call noundef ptr @_ZN4llvm11ConstantInt3getEPNS_11IntegerTypeEmb(ptr noundef %9, i64 noundef %2, i1 noundef zeroext true) #24
  %11 = tail call noundef ptr @_ZN4llvm15ValueAsMetadata3getEPNS_5ValueE(ptr noundef %10) #24
  %12 = tail call noundef ptr @_ZN4llvm10DISubrange7getImplERNS_11LLVMContextEPNS_8MetadataES4_S4_S4_NS3_11StorageTypeEb(ptr noundef nonnull align 8 dereferenceable(8) %0, ptr noundef %8, ptr noundef %11, ptr noundef null, ptr noundef null, i32 noundef %3, i1 noundef zeroext %4)
  ret ptr %12
}